; Function Attrs: mustprogress uwtable
define void @_ZN5boost10filesystem6detail12copy_symlinkERKNS0_4pathES4_PNS_6system10error_codeE(ptr noundef nonnull align 8 dereferenceable(32) %0, ptr noundef nonnull align 8 dereferenceable(32) %1, ptr noundef %2) local_unnamed_addr #5 personality ptr @__gxx_personality_v0 {
  %4 = alloca %"class.boost::filesystem::path", align 8
  call void @llvm.lifetime.start.p0(i64 32, ptr nonnull %4) #27
  call void @_ZN5boost10filesystem6detail12read_symlinkERKNS0_4pathEPNS_6system10error_codeE(ptr dead_on_unwind nonnull writable sret(%"class.boost::filesystem::path") align 8 %4, ptr noundef nonnull align 8 dereferenceable(32) %0, ptr noundef %2)
  %.not = icmp eq ptr %2, null
  br i1 %.not, label %12, label %5

5:                                                ; preds = %3
  %6 = getelementptr inbounds nuw i8, ptr %2, i64 16
  %7 = load i64, ptr %6, align 8, !tbaa !26
  %8 = and i64 %7, 1
  %.not.i.i = icmp eq i64 %8, 0
  br i1 %.not.i.i, label %_ZNK5boost6system10error_codecvbEv.exit.thread11, label %9

9:                                                ; preds = %5
  %10 = icmp eq i64 %7, 1
  br i1 %10, label %_ZNK5boost6system10error_codecvbEv.exit, label %_ZN5boost10filesystem6detail14create_symlinkERKNS0_4pathES4_PNS_6system10error_codeE.exit

_ZNK5boost6system10error_codecvbEv.exit:          ; preds = %9
  %11 = load i32, ptr %2, align 8, !tbaa !39
  %.not13 = icmp eq i32 %11, 0
  br i1 %.not13, label %_ZNK5boost6system10error_codecvbEv.exit.thread11, label %_ZN5boost10filesystem6detail14create_symlinkERKNS0_4pathES4_PNS_6system10error_codeE.exit

_ZNK5boost6system10error_codecvbEv.exit.thread11: ; preds = %5, %_ZNK5boost6system10error_codecvbEv.exit
  call void @llvm.memset.p0.i64(ptr noundef nonnull align 8 dereferenceable(24) %2, i8 0, i64 24, i1 false)
  br label %12

12:                                               ; preds = %3, %_ZNK5boost6system10error_codecvbEv.exit.thread11
  %13 = load ptr, ptr %4, align 8, !tbaa !13
  %14 = load ptr, ptr %1, align 8, !tbaa !13
  %15 = call i32 @symlink(ptr noundef %13, ptr noundef %14) #27
  %16 = icmp slt i32 %15, 0
  br i1 %16, label %17, label %_ZN5boost10filesystem6detail14create_symlinkERKNS0_4pathES4_PNS_6system10error_codeE.exit, !prof !41

17:                                               ; preds = %12
  %18 = tail call ptr @__errno_location() #30
  %19 = load i32, ptr %18, align 4, !tbaa !19
  invoke void @_ZN5boost10filesystem10emit_errorEiRKNS0_4pathES3_PNS_6system10error_codeEPKc(i32 noundef %19, ptr noundef nonnull align 8 dereferenceable(32) %4, ptr noundef nonnull align 8 dereferenceable(32) %1, ptr noundef %2, ptr noundef nonnull @.str.10)
          to label %_ZN5boost10filesystem6detail14create_symlinkERKNS0_4pathES4_PNS_6system10error_codeE.exit unwind label %28

_ZN5boost10filesystem6detail14create_symlinkERKNS0_4pathES4_PNS_6system10error_codeE.exit: ; preds = %9, %12, %17, %_ZNK5boost6system10error_codecvbEv.exit
  %20 = load ptr, ptr %4, align 8, !tbaa !13
  %21 = getelementptr inbounds nuw i8, ptr %4, i64 16
  %22 = icmp eq ptr %20, %21
  br i1 %22, label %_ZNKSt7__cxx1112basic_stringIcSt11char_traitsIcESaIcEE11_M_is_localEv.exit.thread.i.i.i, label %_ZNKSt7__cxx1112basic_stringIcSt11char_traitsIcESaIcEE11_M_is_localEv.exit.i.i.i

_ZNKSt7__cxx1112basic_stringIcSt11char_traitsIcESaIcEE11_M_is_localEv.exit.thread.i.i.i: ; preds = %_ZN5boost10filesystem6detail14create_symlinkERKNS0_4pathES4_PNS_6system10error_codeE.exit
  %23 = getelementptr inbounds nuw i8, ptr %4, i64 8
  %24 = load i64, ptr %23, align 8, !tbaa !16
  %25 = icmp ult i64 %24, 16
  call void @llvm.assume(i1 %25)
  br label %_ZN5boost10filesystem4pathD2Ev.exit

_ZNKSt7__cxx1112basic_stringIcSt11char_traitsIcESaIcEE11_M_is_localEv.exit.i.i.i: ; preds = %_ZN5boost10filesystem6detail14create_symlinkERKNS0_4pathES4_PNS_6system10error_codeE.exit
  %26 = load i64, ptr %21, align 8, !tbaa !15
  %27 = add i64 %26, 1
  call void @_ZdlPvm(ptr noundef %20, i64 noundef %27) #31
  br label %_ZN5boost10filesystem4pathD2Ev.exit

_ZN5boost10filesystem4pathD2Ev.exit:              ; preds = %_ZNKSt7__cxx1112basic_stringIcSt11char_traitsIcESaIcEE11_M_is_localEv.exit.thread.i.i.i, %_ZNKSt7__cxx1112basic_stringIcSt11char_traitsIcESaIcEE11_M_is_localEv.exit.i.i.i
  call void @llvm.lifetime.end.p0(i64 32, ptr nonnull %4) #27
  ret void

28:                                               ; preds = %17
  %29 = landingpad { ptr, i32 }
          cleanup
  %30 = load ptr, ptr %4, align 8, !tbaa !13
  %31 = getelementptr inbounds nuw i8, ptr %4, i64 16
  %32 = icmp eq ptr %30, %31
  br i1 %32, label %_ZNKSt7__cxx1112basic_stringIcSt11char_traitsIcESaIcEE11_M_is_localEv.exit.thread.i.i.i8, label %_ZNKSt7__cxx1112basic_stringIcSt11char_traitsIcESaIcEE11_M_is_localEv.exit.i.i.i7

_ZNKSt7__cxx1112basic_stringIcSt11char_traitsIcESaIcEE11_M_is_localEv.exit.thread.i.i.i8: ; preds = %28
  %33 = getelementptr inbounds nuw i8, ptr %4, i64 8
  %34 = load i64, ptr %33, align 8, !tbaa !16
  %35 = icmp ult i64 %34, 16
  call void @llvm.assume(i1 %35)
  br label %_ZN5boost10filesystem4pathD2Ev.exit9

_ZNKSt7__cxx1112basic_stringIcSt11char_traitsIcESaIcEE11_M_is_localEv.exit.i.i.i7: ; preds = %28
  %36 = load i64, ptr %31, align 8, !tbaa !15
  %37 = add i64 %36, 1
  call void @_ZdlPvm(ptr noundef %30, i64 noundef %37) #31
  br label %_ZN5boost10filesystem4pathD2Ev.exit9

_ZN5boost10filesystem4pathD2Ev.exit9:             ; preds = %_ZNKSt7__cxx1112basic_stringIcSt11char_traitsIcESaIcEE11_M_is_localEv.exit.thread.i.i.i8, %_ZNKSt7__cxx1112basic_stringIcSt11char_traitsIcESaIcEE11_M_is_localEv.exit.i.i.i7
  call void @llvm.lifetime.end.p0(i64 32, ptr nonnull %4) #27
  resume { ptr, i32 } %29
}